target datalayout = "e-m:e-p270:32:32-p271:32:32-p272:64:64-i64:64-i128:128-f80:128-n8:16:32:64-S128"
target triple = "x86_64-unknown-linux-gnu"

%"class.icu_75::number::impl::ScientificHandler" = type { %"class.icu_75::number::impl::MicroPropsGenerator", %"class.icu_75::number::impl::MultiplierProducer", %"struct.icu_75::number::Notation::NotationUnion::ScientificSettings", ptr, ptr }
%"class.icu_75::number::impl::MicroPropsGenerator" = type { ptr }
%"class.icu_75::number::impl::MultiplierProducer" = type { ptr }
%"struct.icu_75::number::Notation::NotationUnion::ScientificSettings" = type { i8, i8, i16, i32 }

; Function Attrs: mustprogress nounwind uwtable
define noundef i32 @_ZNK6icu_756number4impl17ScientificHandler13getMultiplierEi(ptr noundef nonnull align 8 dereferenceable(40) %this, i32 noundef %magnitude) unnamed_addr #0 align 2 {
entry:
  %this.addr = alloca ptr, align 8
  %magnitude.addr = alloca i32, align 4
  %interval = alloca i32, align 4
  %digitsShown = alloca i32, align 4
  store ptr %this, ptr %this.addr, align 8
  store i32 %magnitude, ptr %magnitude.addr, align 4
  %this1 = load ptr, ptr %this.addr, align 8
  %fSettings = getelementptr inbounds %"class.icu_75::number::impl::ScientificHandler", ptr %this1, i32 0, i32 2
  %fEngineeringInterval = getelementptr inbounds %"struct.icu_75::number::Notation::NotationUnion::ScientificSettings", ptr %fSettings, i32 0, i32 0
  %0 = load i8, ptr %fEngineeringInterval, align 8
  %conv = sext i8 %0 to i32
  store i32 %conv, ptr %interval, align 4
  %fSettings2 = getelementptr inbounds %"class.icu_75::number::impl::ScientificHandler", ptr %this1, i32 0, i32 2
  %fRequireMinInt = getelementptr inbounds %"struct.icu_75::number::Notation::NotationUnion::ScientificSettings", ptr %fSettings2, i32 0, i32 1
  %1 = load i8, ptr %fRequireMinInt, align 1
  %tobool = trunc i8 %1 to i1
  br i1 %tobool, label %if.then, label %if.else

if.then:                                          ; preds = %entry
  %2 = load i32, ptr %interval, align 4
  store i32 %2, ptr %digitsShown, align 4
  br label %if.end7

if.else:                                          ; preds = %entry
  %3 = load i32, ptr %interval, align 4
  %cmp = icmp sle i32 %3, 1
  br i1 %cmp, label %if.then3, label %if.else4

if.then3:                                         ; preds = %if.else
  store i32 1, ptr %digitsShown, align 4
  br label %if.end

if.else4:                                         ; preds = %if.else
  %4 = load i32, ptr %magnitude.addr, align 4
  %5 = load i32, ptr %interval, align 4
  %rem = srem i32 %4, %5
  %6 = load i32, ptr %interval, align 4
  %add = add nsw i32 %rem, %6
  %7 = load i32, ptr %interval, align 4
  %rem5 = srem i32 %add, %7
  %add6 = add nsw i32 %rem5, 1
  store i32 %add6, ptr %digitsShown, align 4
  br label %if.end

if.end:                                           ; preds = %if.else4, %if.then3
  br label %if.end7

if.end7:                                          ; preds = %if.end, %if.then
  %8 = load i32, ptr %digitsShown, align 4
  %9 = load i32, ptr %magnitude.addr, align 4
  %sub = sub nsw i32 %8, %9
  %sub8 = sub nsw i32 %sub, 1
  ret i32 %sub8
}