; Function Attrs: mustprogress nofree norecurse nosync nounwind willreturn memory(argmem: read) uwtable
define noundef i32 @_ZNK6icu_756number4impl17ScientificHandler13getMultiplierEi(ptr nocapture noundef nonnull readonly align 8 dereferenceable(40) %this, i32 noundef %magnitude) unnamed_addr #15 align 2 {
entry:
  %fSettings = getelementptr inbounds i8, ptr %this, i64 16
  %0 = load i8, ptr %fSettings, align 8
  %conv = sext i8 %0 to i32
  %fRequireMinInt = getelementptr inbounds i8, ptr %this, i64 17
  %1 = load i8, ptr %fRequireMinInt, align 1
  %2 = and i8 %1, 1
  %tobool.not = icmp eq i8 %2, 0
  br i1 %tobool.not, label %if.else, label %if.end7

if.else:                                          ; preds = %entry
  %cmp = icmp slt i8 %0, 2
  br i1 %cmp, label %if.end7, label %if.else4

if.else4:                                         ; preds = %if.else
  %rem = srem i32 %magnitude, %conv
  %add = add nsw i32 %rem, %conv
  %rem5.lhs.trunc = trunc i32 %add to i16
  %rem5.rhs.trunc = zext nneg i8 %0 to i16
  %rem56 = srem i16 %rem5.lhs.trunc, %rem5.rhs.trunc
  %rem5.sext = sext i16 %rem56 to i32
  %add6 = add nsw i32 %rem5.sext, 1
  br label %if.end7

if.end7:                                          ; preds = %if.else, %entry, %if.else4
  %digitsShown.0 = phi i32 [ %add6, %if.else4 ], [ %conv, %entry ], [ 1, %if.else ]
  %3 = xor i32 %magnitude, -1
  %sub8 = add i32 %digitsShown.0, %3
  ret i32 %sub8
}